; ModuleID = '44/813.c'
source_filename = "44/813.c"
target datalayout = "e-m:e-p270:32:32-p271:32:32-p272:64:64-i64:64-f80:128-n8:16:32:64-S128"
target triple = "x86_64-pc-linux-gnu"

@.str = private unnamed_addr constant [3 x i8] c"%d\00", align 1
@.str.1 = private unnamed_addr constant [4 x i8] c"%d\0A\00", align 1

; Function Attrs: noinline nounwind uwtable
define dso_local i32 @reverse(i32 %0) #0 {
  %2 = alloca i32, align 4
  %3 = alloca i32, align 4
  %4 = alloca i32, align 4
  %5 = alloca [1000 x i32], align 16
  %6 = alloca i32, align 4
  %7 = alloca i32, align 4
  %8 = alloca i32, align 4
  %9 = alloca i32, align 4
  %10 = alloca i32, align 4
  %11 = alloca i32, align 4
  %12 = alloca i32, align 4
  store i32 %0, i32* %3, align 4
  store i32 0, i32* %10, align 4
  store i32 1, i32* %6, align 4
  %13 = load i32, i32* %3, align 4
  %14 = call i32 @abs(i32 %13) #3
  store i32 %14, i32* %12, align 4
  %15 = load i32, i32* %3, align 4
  %16 = icmp eq i32 %15, 0
  br i1 %16, label %17, label %18

17:                                               ; preds = %1
  store i32 0, i32* %2, align 4
  br label %77

18:                                               ; preds = %1
  %19 = load i32, i32* %3, align 4
  %20 = icmp sgt i32 %19, 0
  br i1 %20, label %21, label %22

21:                                               ; preds = %18
  store i32 1, i32* %4, align 4
  br label %22

22:                                               ; preds = %21, %18
  %23 = load i32, i32* %3, align 4
  %24 = icmp slt i32 %23, 0
  br i1 %24, label %25, label %26

25:                                               ; preds = %22
  store i32 -1, i32* %4, align 4
  br label %26

26:                                               ; preds = %25, %22
  br label %27

27:                                               ; preds = %30, %26
  %28 = load i32, i32* %12, align 4
  %29 = icmp ne i32 %28, 0
  br i1 %29, label %30, label %41

30:                                               ; preds = %27
  %31 = load i32, i32* %12, align 4
  %32 = srem i32 %31, 10
  %33 = load i32, i32* %6, align 4
  %34 = sub nsw i32 %33, 1
  %35 = sext i32 %34 to i64
  %36 = getelementptr inbounds [1000 x i32], [1000 x i32]* %5, i64 0, i64 %35
  store i32 %32, i32* %36, align 4
  %37 = load i32, i32* %12, align 4
  %38 = sdiv i32 %37, 10
  store i32 %38, i32* %12, align 4
  %39 = load i32, i32* %6, align 4
  %40 = add nsw i32 %39, 1
  store i32 %40, i32* %6, align 4
  br label %27

41:                                               ; preds = %27
  %42 = load i32, i32* %6, align 4
  store i32 %42, i32* %7, align 4
  br label %43

43:                                               ; preds = %69, %41
  %44 = load i32, i32* %7, align 4
  %45 = icmp sge i32 %44, 1
  br i1 %45, label %46, label %72

46:                                               ; preds = %43
  store i32 1, i32* %11, align 4
  store i32 1, i32* %9, align 4
  br label %47

47:                                               ; preds = %56, %46
  %48 = load i32, i32* %9, align 4
  %49 = load i32, i32* %6, align 4
  %50 = load i32, i32* %7, align 4
  %51 = sub nsw i32 %49, %50
  %52 = icmp sle i32 %48, %51
  br i1 %52, label %53, label %59

53:                                               ; preds = %47
  %54 = load i32, i32* %11, align 4
  %55 = mul nsw i32 %54, 10
  store i32 %55, i32* %11, align 4
  br label %56

56:                                               ; preds = %53
  %57 = load i32, i32* %9, align 4
  %58 = add nsw i32 %57, 1
  store i32 %58, i32* %9, align 4
  br label %47

59:                                               ; preds = %47
  %60 = load i32, i32* %11, align 4
  %61 = load i32, i32* %7, align 4
  %62 = sub nsw i32 %61, 1
  %63 = sext i32 %62 to i64
  %64 = getelementptr inbounds [1000 x i32], [1000 x i32]* %5, i64 0, i64 %63
  %65 = load i32, i32* %64, align 4
  %66 = mul nsw i32 %60, %65
  %67 = load i32, i32* %10, align 4
  %68 = add nsw i32 %67, %66
  store i32 %68, i32* %10, align 4
  br label %69

69:                                               ; preds = %59
  %70 = load i32, i32* %7, align 4
  %71 = add nsw i32 %70, -1
  store i32 %71, i32* %7, align 4
  br label %43

72:                                               ; preds = %43
  %73 = load i32, i32* %4, align 4
  %74 = load i32, i32* %10, align 4
  %75 = mul nsw i32 %73, %74
  %76 = sdiv i32 %75, 10
  store i32 %76, i32* %2, align 4
  br label %77

77:                                               ; preds = %72, %17
  %78 = load i32, i32* %2, align 4
  ret i32 %78
}

; Function Attrs: nounwind readnone
declare dso_local i32 @abs(i32) #1

; Function Attrs: noinline nounwind uwtable
define dso_local void @main() #0 {
  %1 = alloca i32, align 4
  %2 = alloca i32, align 4
  store i32 1, i32* %1, align 4
  br label %3

3:                                                ; preds = %11, %0
  %4 = load i32, i32* %1, align 4
  %5 = icmp sle i32 %4, 6
  br i1 %5, label %6, label %14

6:                                                ; preds = %3
  %7 = call i32 (i8*, ...) @__isoc99_scanf(i8* getelementptr inbounds ([3 x i8], [3 x i8]* @.str, i64 0, i64 0), i32* %2)
  %8 = load i32, i32* %2, align 4
  %9 = call i32 @reverse(i32 %8)
  %10 = call i32 (i8*, ...) @printf(i8* getelementptr inbounds ([4 x i8], [4 x i8]* @.str.1, i64 0, i64 0), i32 %9)
  br label %11

11:                                               ; preds = %6
  %12 = load i32, i32* %1, align 4
  %13 = add nsw i32 %12, 1
  store i32 %13, i32* %1, align 4
  br label %3

14:                                               ; preds = %3
  %15 = call i32 (i8*, ...) @__isoc99_scanf(i8* getelementptr inbounds ([3 x i8], [3 x i8]* @.str, i64 0, i64 0), i32* %1)
  ret void
}

declare dso_local i32 @__isoc99_scanf(i8*, ...) #2

declare dso_local i32 @printf(i8*, ...) #2


!llvm.module.flags = !{!0}
!llvm.ident = !{!1}

!0 = !{i32 1, !"wchar_size", i32 4}
!1 = !{!"clang version 10.0.0-4ubuntu1 "}
